; Function Attrs: mustprogress nofree norecurse nosync nounwind willreturn memory(readwrite, inaccessiblemem: none) uwtable
define hidden void @_ZN10Relocation20const_set_data_valueEPh(ptr nocapture noundef nonnull readonly align 8 dereferenceable(20) %0, ptr noundef %1) local_unnamed_addr #11 align 2 {
  %3 = getelementptr inbounds i8, ptr %0, i64 8
  %4 = load ptr, ptr %3, align 8
  %5 = getelementptr inbounds i8, ptr %4, i64 8
  %6 = load ptr, ptr %5, align 8
  %7 = load i16, ptr %6, align 2
  %8 = and i16 %7, 1792
  %9 = icmp eq i16 %8, 256
  br i1 %9, label %10, label %23

10:                                               ; preds = %2
  %11 = icmp eq ptr %1, null
  %12 = load ptr, ptr @_ZN14CompressedOops11_narrow_oopE, align 8
  %13 = ptrtoint ptr %1 to i64
  %14 = ptrtoint ptr %12 to i64
  %15 = sub i64 %13, %14
  %16 = load i32, ptr getelementptr inbounds (i8, ptr @_ZN14CompressedOops11_narrow_oopE, i64 8), align 8
  %17 = zext nneg i32 %16 to i64
  %18 = lshr i64 %15, %17
  %19 = trunc i64 %18 to i32
  %20 = select i1 %11, i32 0, i32 %19
  %21 = getelementptr inbounds i8, ptr %4, i64 32
  %22 = load ptr, ptr %21, align 8
  store i32 %20, ptr %22, align 4
  br label %26

23:                                               ; preds = %2
  %24 = getelementptr inbounds i8, ptr %4, i64 32
  %25 = load ptr, ptr %24, align 8
  store ptr %1, ptr %25, align 8
  br label %26

26:                                               ; preds = %23, %10
  ret void
}